; Function Attrs: mustprogress uwtable
define dso_local noundef zeroext i1 @_ZNK4absl13cord_internal11CordzHandle12SafeToDeleteEv(ptr nocapture noundef nonnull readonly align 8 dereferenceable(32) %this) local_unnamed_addr #0 align 2 personality ptr @__gxx_personality_v0 {
entry:
  %is_snapshot_ = getelementptr inbounds i8, ptr %this, i64 8
  %0 = load i8, ptr %is_snapshot_, align 8
  %1 = and i8 %0, 1
  %tobool.not = icmp eq i8 %1, 0
  br i1 %tobool.not, label %lor.rhs, label %lor.end

lor.rhs:                                          ; preds = %entry
  %2 = load atomic i8, ptr @_ZGVZN4absl13cord_internal12_GLOBAL__N_111GlobalQueueEvE12global_queue acquire, align 8
  %guard.uninitialized.i = icmp eq i8 %2, 0
  br i1 %guard.uninitialized.i, label %init.check.i, label %_ZN4absl13cord_internal12_GLOBAL__N_111GlobalQueueEv.exit, !prof !5

init.check.i:                                     ; preds = %lor.rhs
  %3 = tail call i32 @__cxa_guard_acquire(ptr nonnull @_ZGVZN4absl13cord_internal12_GLOBAL__N_111GlobalQueueEvE12global_queue) #11
  %tobool.not.i = icmp eq i32 %3, 0
  br i1 %tobool.not.i, label %_ZN4absl13cord_internal12_GLOBAL__N_111GlobalQueueEv.exit, label %init.i

init.i:                                           ; preds = %init.check.i
  %call.i = invoke noalias noundef nonnull dereferenceable(16) ptr @_Znwm(i64 noundef 16) #12
          to label %invoke.cont2.i unwind label %lpad.i

invoke.cont2.i:                                   ; preds = %init.i
  tail call void @llvm.memset.p0.i64(ptr noundef nonnull align 8 dereferenceable(16) %call.i, i8 0, i64 16, i1 false)
  store ptr %call.i, ptr @_ZZN4absl13cord_internal12_GLOBAL__N_111GlobalQueueEvE12global_queue, align 8
  tail call void @__cxa_guard_release(ptr nonnull @_ZGVZN4absl13cord_internal12_GLOBAL__N_111GlobalQueueEvE12global_queue) #11
  br label %_ZN4absl13cord_internal12_GLOBAL__N_111GlobalQueueEv.exit

lpad.i:                                           ; preds = %init.i
  %4 = landingpad { ptr, i32 }
          cleanup
  tail call void @__cxa_guard_abort(ptr nonnull @_ZGVZN4absl13cord_internal12_GLOBAL__N_111GlobalQueueEvE12global_queue) #11
  resume { ptr, i32 } %4

_ZN4absl13cord_internal12_GLOBAL__N_111GlobalQueueEv.exit: ; preds = %lor.rhs, %init.check.i, %invoke.cont2.i
  %5 = load ptr, ptr @_ZZN4absl13cord_internal12_GLOBAL__N_111GlobalQueueEvE12global_queue, align 8
  %dq_tail.i = getelementptr inbounds i8, ptr %5, i64 8
  %6 = load atomic i64, ptr %dq_tail.i acquire, align 8
  %cmp.i = icmp eq i64 %6, 0
  br label %lor.end

lor.end:                                          ; preds = %_ZN4absl13cord_internal12_GLOBAL__N_111GlobalQueueEv.exit, %entry
  %7 = phi i1 [ true, %entry ], [ %cmp.i, %_ZN4absl13cord_internal12_GLOBAL__N_111GlobalQueueEv.exit ]
  ret i1 %7
}